; Function Attrs: mustprogress uwtable
define internal fastcc void @_ZN7testing8internal8EqHelper7CompareIZN12_GLOBAL__N_124NumbersTest_Atoenum_Test8TestBodyEvE5E_101S5_TnPNSt9enable_ifIXoontsr3std11is_integralIT_EE5valuentsr3std10is_pointerIT0_EE5valueEvE4typeELPv0EEENS_15AssertionResultEPKcSF_RKS7_RKS8_(ptr dead_on_unwind noalias nonnull writable align 8 %0, ptr noundef nonnull readonly align 4 captures(none) dereferenceable(4) %1, ptr noundef nonnull readonly align 4 captures(none) dereferenceable(4) %2) unnamed_addr #4 align 2 personality ptr @__gxx_personality_v0 {
  %4 = alloca %"class.std::__cxx11::basic_string", align 8
  %5 = alloca %"class.std::__cxx11::basic_string", align 8
  %6 = load i32, ptr %1, align 4, !tbaa !25, !noalias !862
  %7 = load i32, ptr %2, align 4, !tbaa !25, !noalias !862
  %8 = icmp eq i32 %6, %7
  br i1 %8, label %9, label %10

9:                                                ; preds = %3
  tail call void @_ZN7testing16AssertionSuccessEv(ptr dead_on_unwind nonnull writable sret(%"class.testing::AssertionResult") align 8 %0)
  br label %_ZN7testing8internal11CmpHelperEQIZN12_GLOBAL__N_124NumbersTest_Atoenum_Test8TestBodyEvE5E_101S4_EENS_15AssertionResultEPKcS7_RKT_RKT0_.exit

10:                                               ; preds = %3
  call void @llvm.lifetime.start.p0(i64 32, ptr nonnull %4) #33, !noalias !865
  call fastcc void @_ZN7testing8internal33FormatForComparisonFailureMessageIZN12_GLOBAL__N_124NumbersTest_Atoenum_Test8TestBodyEvE5E_101S4_EENSt7__cxx1112basic_stringIcSt11char_traitsIcESaIcEEERKT_RKT0_(ptr dead_on_unwind noalias writable align 8 %4, ptr noundef nonnull readonly align 4 dereferenceable(4) %1), !noalias !865
  call void @llvm.lifetime.start.p0(i64 32, ptr nonnull %5) #33, !noalias !865
  invoke fastcc void @_ZN7testing8internal33FormatForComparisonFailureMessageIZN12_GLOBAL__N_124NumbersTest_Atoenum_Test8TestBodyEvE5E_101S4_EENSt7__cxx1112basic_stringIcSt11char_traitsIcESaIcEEERKT_RKT0_(ptr dead_on_unwind noalias writable align 8 %5, ptr noundef nonnull readonly align 4 dereferenceable(4) %2)
          to label %11 unwind label %29, !noalias !865

11:                                               ; preds = %10
  invoke void @_ZN7testing8internal9EqFailureEPKcS2_RKNSt7__cxx1112basic_stringIcSt11char_traitsIcESaIcEEESA_b(ptr dead_on_unwind nonnull writable sret(%"class.testing::AssertionResult") align 8 %0, ptr noundef nonnull @.str.139, ptr noundef nonnull @.str.140, ptr noundef nonnull align 8 dereferenceable(32) %4, ptr noundef nonnull align 8 dereferenceable(32) %5, i1 noundef zeroext false)
          to label %12 unwind label %31

12:                                               ; preds = %11
  %13 = load ptr, ptr %5, align 8, !tbaa !20, !noalias !865
  %14 = getelementptr inbounds nuw i8, ptr %5, i64 16
  %15 = icmp eq ptr %13, %14
  br i1 %15, label %_ZNKSt7__cxx1112basic_stringIcSt11char_traitsIcESaIcEE11_M_is_localEv.exit.thread.i.i.i.i, label %_ZNKSt7__cxx1112basic_stringIcSt11char_traitsIcESaIcEE11_M_is_localEv.exit.i.i.i.i

_ZNKSt7__cxx1112basic_stringIcSt11char_traitsIcESaIcEE11_M_is_localEv.exit.thread.i.i.i.i: ; preds = %12
  %16 = getelementptr inbounds nuw i8, ptr %5, i64 8
  %17 = load i64, ptr %16, align 8, !tbaa !24, !noalias !865
  %18 = icmp ult i64 %17, 16
  call void @llvm.assume(i1 %18)
  br label %_ZNSt7__cxx1112basic_stringIcSt11char_traitsIcESaIcEED2Ev.exit.i.i

_ZNKSt7__cxx1112basic_stringIcSt11char_traitsIcESaIcEE11_M_is_localEv.exit.i.i.i.i: ; preds = %12
  %19 = load i64, ptr %14, align 8, !tbaa !25, !noalias !865
  %20 = add i64 %19, 1
  call void @_ZdlPvm(ptr noundef %13, i64 noundef %20) #35
  br label %_ZNSt7__cxx1112basic_stringIcSt11char_traitsIcESaIcEED2Ev.exit.i.i

_ZNSt7__cxx1112basic_stringIcSt11char_traitsIcESaIcEED2Ev.exit.i.i: ; preds = %_ZNKSt7__cxx1112basic_stringIcSt11char_traitsIcESaIcEE11_M_is_localEv.exit.i.i.i.i, %_ZNKSt7__cxx1112basic_stringIcSt11char_traitsIcESaIcEE11_M_is_localEv.exit.thread.i.i.i.i
  call void @llvm.lifetime.end.p0(i64 32, ptr nonnull %5) #33, !noalias !865
  %21 = load ptr, ptr %4, align 8, !tbaa !20, !noalias !865
  %22 = getelementptr inbounds nuw i8, ptr %4, i64 16
  %23 = icmp eq ptr %21, %22
  br i1 %23, label %_ZNKSt7__cxx1112basic_stringIcSt11char_traitsIcESaIcEE11_M_is_localEv.exit.thread.i.i10.i.i, label %_ZNKSt7__cxx1112basic_stringIcSt11char_traitsIcESaIcEE11_M_is_localEv.exit.i.i9.i.i

_ZNKSt7__cxx1112basic_stringIcSt11char_traitsIcESaIcEE11_M_is_localEv.exit.thread.i.i10.i.i: ; preds = %_ZNSt7__cxx1112basic_stringIcSt11char_traitsIcESaIcEED2Ev.exit.i.i
  %24 = getelementptr inbounds nuw i8, ptr %4, i64 8
  %25 = load i64, ptr %24, align 8, !tbaa !24, !noalias !865
  %26 = icmp ult i64 %25, 16
  call void @llvm.assume(i1 %26)
  br label %_ZN7testing8internal18CmpHelperEQFailureIZN12_GLOBAL__N_124NumbersTest_Atoenum_Test8TestBodyEvE5E_101S4_EENS_15AssertionResultEPKcS7_RKT_RKT0_.exit.i

_ZNKSt7__cxx1112basic_stringIcSt11char_traitsIcESaIcEE11_M_is_localEv.exit.i.i9.i.i: ; preds = %_ZNSt7__cxx1112basic_stringIcSt11char_traitsIcESaIcEED2Ev.exit.i.i
  %27 = load i64, ptr %22, align 8, !tbaa !25, !noalias !865
  %28 = add i64 %27, 1
  call void @_ZdlPvm(ptr noundef %21, i64 noundef %28) #35
  br label %_ZN7testing8internal18CmpHelperEQFailureIZN12_GLOBAL__N_124NumbersTest_Atoenum_Test8TestBodyEvE5E_101S4_EENS_15AssertionResultEPKcS7_RKT_RKT0_.exit.i

29:                                               ; preds = %10
  %30 = landingpad { ptr, i32 }
          cleanup
  br label %_ZNSt7__cxx1112basic_stringIcSt11char_traitsIcESaIcEED2Ev.exit14.i.i

31:                                               ; preds = %11
  %32 = landingpad { ptr, i32 }
          cleanup
  %33 = load ptr, ptr %5, align 8, !tbaa !20, !noalias !865
  %34 = getelementptr inbounds nuw i8, ptr %5, i64 16
  %35 = icmp eq ptr %33, %34
  br i1 %35, label %_ZNKSt7__cxx1112basic_stringIcSt11char_traitsIcESaIcEE11_M_is_localEv.exit.thread.i.i13.i.i, label %_ZNKSt7__cxx1112basic_stringIcSt11char_traitsIcESaIcEE11_M_is_localEv.exit.i.i12.i.i

_ZNKSt7__cxx1112basic_stringIcSt11char_traitsIcESaIcEE11_M_is_localEv.exit.thread.i.i13.i.i: ; preds = %31
  %36 = getelementptr inbounds nuw i8, ptr %5, i64 8
  %37 = load i64, ptr %36, align 8, !tbaa !24, !noalias !865
  %38 = icmp ult i64 %37, 16
  call void @llvm.assume(i1 %38)
  br label %_ZNSt7__cxx1112basic_stringIcSt11char_traitsIcESaIcEED2Ev.exit14.i.i

_ZNKSt7__cxx1112basic_stringIcSt11char_traitsIcESaIcEE11_M_is_localEv.exit.i.i12.i.i: ; preds = %31
  %39 = load i64, ptr %34, align 8, !tbaa !25, !noalias !865
  %40 = add i64 %39, 1
  call void @_ZdlPvm(ptr noundef %33, i64 noundef %40) #35
  br label %_ZNSt7__cxx1112basic_stringIcSt11char_traitsIcESaIcEED2Ev.exit14.i.i

_ZNSt7__cxx1112basic_stringIcSt11char_traitsIcESaIcEED2Ev.exit14.i.i: ; preds = %_ZNKSt7__cxx1112basic_stringIcSt11char_traitsIcESaIcEE11_M_is_localEv.exit.i.i12.i.i, %_ZNKSt7__cxx1112basic_stringIcSt11char_traitsIcESaIcEE11_M_is_localEv.exit.thread.i.i13.i.i, %29
  %.pn.i.i = phi { ptr, i32 } [ %30, %29 ], [ %32, %_ZNKSt7__cxx1112basic_stringIcSt11char_traitsIcESaIcEE11_M_is_localEv.exit.thread.i.i13.i.i ], [ %32, %_ZNKSt7__cxx1112basic_stringIcSt11char_traitsIcESaIcEE11_M_is_localEv.exit.i.i12.i.i ]
  call void @llvm.lifetime.end.p0(i64 32, ptr nonnull %5) #33, !noalias !865
  %41 = load ptr, ptr %4, align 8, !tbaa !20, !noalias !865
  %42 = getelementptr inbounds nuw i8, ptr %4, i64 16
  %43 = icmp eq ptr %41, %42
  br i1 %43, label %_ZNKSt7__cxx1112basic_stringIcSt11char_traitsIcESaIcEE11_M_is_localEv.exit.thread.i.i16.i.i, label %_ZNKSt7__cxx1112basic_stringIcSt11char_traitsIcESaIcEE11_M_is_localEv.exit.i.i15.i.i

_ZNKSt7__cxx1112basic_stringIcSt11char_traitsIcESaIcEE11_M_is_localEv.exit.thread.i.i16.i.i: ; preds = %_ZNSt7__cxx1112basic_stringIcSt11char_traitsIcESaIcEED2Ev.exit14.i.i
  %44 = getelementptr inbounds nuw i8, ptr %4, i64 8
  %45 = load i64, ptr %44, align 8, !tbaa !24, !noalias !865
  %46 = icmp ult i64 %45, 16
  call void @llvm.assume(i1 %46)
  br label %_ZNSt7__cxx1112basic_stringIcSt11char_traitsIcESaIcEED2Ev.exit17.i.i

_ZNKSt7__cxx1112basic_stringIcSt11char_traitsIcESaIcEE11_M_is_localEv.exit.i.i15.i.i: ; preds = %_ZNSt7__cxx1112basic_stringIcSt11char_traitsIcESaIcEED2Ev.exit14.i.i
  %47 = load i64, ptr %42, align 8, !tbaa !25, !noalias !865
  %48 = add i64 %47, 1
  call void @_ZdlPvm(ptr noundef %41, i64 noundef %48) #35
  br label %_ZNSt7__cxx1112basic_stringIcSt11char_traitsIcESaIcEED2Ev.exit17.i.i

_ZNSt7__cxx1112basic_stringIcSt11char_traitsIcESaIcEED2Ev.exit17.i.i: ; preds = %_ZNKSt7__cxx1112basic_stringIcSt11char_traitsIcESaIcEE11_M_is_localEv.exit.i.i15.i.i, %_ZNKSt7__cxx1112basic_stringIcSt11char_traitsIcESaIcEE11_M_is_localEv.exit.thread.i.i16.i.i
  call void @llvm.lifetime.end.p0(i64 32, ptr nonnull %4) #33, !noalias !865
  resume { ptr, i32 } %.pn.i.i

_ZN7testing8internal18CmpHelperEQFailureIZN12_GLOBAL__N_124NumbersTest_Atoenum_Test8TestBodyEvE5E_101S4_EENS_15AssertionResultEPKcS7_RKT_RKT0_.exit.i: ; preds = %_ZNKSt7__cxx1112basic_stringIcSt11char_traitsIcESaIcEE11_M_is_localEv.exit.i.i9.i.i, %_ZNKSt7__cxx1112basic_stringIcSt11char_traitsIcESaIcEE11_M_is_localEv.exit.thread.i.i10.i.i
  call void @llvm.lifetime.end.p0(i64 32, ptr nonnull %4) #33, !noalias !865
  br label %_ZN7testing8internal11CmpHelperEQIZN12_GLOBAL__N_124NumbersTest_Atoenum_Test8TestBodyEvE5E_101S4_EENS_15AssertionResultEPKcS7_RKT_RKT0_.exit

_ZN7testing8internal11CmpHelperEQIZN12_GLOBAL__N_124NumbersTest_Atoenum_Test8TestBodyEvE5E_101S4_EENS_15AssertionResultEPKcS7_RKT_RKT0_.exit: ; preds = %9, %_ZN7testing8internal18CmpHelperEQFailureIZN12_GLOBAL__N_124NumbersTest_Atoenum_Test8TestBodyEvE5E_101S4_EENS_15AssertionResultEPKcS7_RKT_RKT0_.exit.i
  ret void
}